target datalayout = "e-m:e-p270:32:32-p271:32:32-p272:64:64-i64:64-i128:128-f80:128-n8:16:32:64-S128"
target triple = "x86_64-pc-linux-gnu"

%"class.std::__1::basic_string" = type { %"class.std::__1::__compressed_pair" }
%"class.std::__1::__compressed_pair" = type { %"struct.std::__1::__compressed_pair_elem" }
%"struct.std::__1::__compressed_pair_elem" = type { %"struct.std::__1::basic_string<char>::__rep" }
%"struct.std::__1::basic_string<char>::__rep" = type { %union.anon }
%union.anon = type { %"struct.std::__1::basic_string<char>::__long" }
%"struct.std::__1::basic_string<char>::__long" = type { %struct.anon.0, i64, ptr }
%struct.anon.0 = type { i64 }
%"struct.std::__1::aligned_storage<24>::type" = type { [32 x i8] }
%"class.tev::HelpWindow" = type { %"class.nanogui::Window.base", %"class.std::__1::function" }
%"class.nanogui::Window.base" = type <{ %"class.nanogui::Widget.base", [4 x i8], %"class.std::__1::basic_string", ptr, i8, i8 }>
%"class.nanogui::Widget.base" = type <{ %"class.nanogui::Object.base", [4 x i8], ptr, %"class.nanogui::ref", %"class.nanogui::ref.3", %"struct.nanogui::Array.4", %"struct.nanogui::Array.4", %"struct.nanogui::Array.4", %"class.std::__1::vector", i8, i8, i8, i8, [4 x i8], %"class.std::__1::basic_string", i32, float, i32 }>
%"class.nanogui::Object.base" = type <{ ptr, %"struct.std::__1::atomic" }>
%"struct.std::__1::atomic" = type { %"struct.std::__1::__atomic_base" }
%"struct.std::__1::__atomic_base" = type { %"struct.std::__1::__atomic_base.2" }
%"struct.std::__1::__atomic_base.2" = type { %"struct.std::__1::__cxx_atomic_impl" }
%"struct.std::__1::__cxx_atomic_impl" = type { %"struct.std::__1::__cxx_atomic_base_impl" }
%"struct.std::__1::__cxx_atomic_base_impl" = type { i32 }
%"class.nanogui::ref" = type { ptr }
%"class.nanogui::ref.3" = type { ptr }
%"struct.nanogui::Array.4" = type { [2 x i32] }
%"class.std::__1::vector" = type { ptr, ptr, %"class.std::__1::__compressed_pair.5" }
%"class.std::__1::__compressed_pair.5" = type { %"struct.std::__1::__compressed_pair_elem.6" }
%"struct.std::__1::__compressed_pair_elem.6" = type { ptr }
%"class.std::__1::function" = type { %"class.std::__1::__function::__value_func" }
%"class.std::__1::__function::__value_func" = type { %"struct.std::__1::aligned_storage<24>::type", ptr, [8 x i8] }

; Function Attrs: mustprogress uwtable
define linkonce_odr hidden void @_ZNKSt3__110__function12__value_funcIFvvEEclB8ne190000Ev(ptr noundef nonnull align 16 dereferenceable(40) %0) #4 comdat align 2 {
  %2 = alloca ptr, align 8
  store ptr %0, ptr %2, align 8
  %3 = load ptr, ptr %2, align 8
  %4 = getelementptr inbounds %"class.std::__1::__function::__value_func", ptr %3, i32 0, i32 1
  %5 = load ptr, ptr %4, align 16
  %6 = icmp eq ptr %5, null
  br i1 %6, label %7, label %8

7:                                                ; preds = %1
  call void @_ZNSt3__125__throw_bad_function_callB8ne190000Ev() #17
  unreachable

8:                                                ; preds = %1
  %9 = getelementptr inbounds %"class.std::__1::__function::__value_func", ptr %3, i32 0, i32 1
  %10 = load ptr, ptr %9, align 16
  %11 = load ptr, ptr %10, align 8
  %12 = getelementptr inbounds ptr, ptr %11, i64 6
  %13 = load ptr, ptr %12, align 8
  call void %13(ptr noundef nonnull align 8 dereferenceable(8) %10)
  ret void
}

; Function Attrs: mustprogress uwtable
define linkonce_odr hidden void @_ZNKSt3__18functionIFvvEEclEv(ptr noundef nonnull align 16 dereferenceable(48) %0) #4 comdat align 2 {
  %2 = alloca ptr, align 8
  store ptr %0, ptr %2, align 8
  %3 = load ptr, ptr %2, align 8
  %4 = getelementptr inbounds %"class.std::__1::function", ptr %3, i32 0, i32 0
  call void @_ZNKSt3__110__function12__value_funcIFvvEEclB8ne190000Ev(ptr noundef nonnull align 16 dereferenceable(40) %4)
  ret void
}

; Function Attrs: mustprogress uwtable
define dso_local noundef zeroext i1 @_ZN3tev10HelpWindow14keyboard_eventEiiii(ptr noundef nonnull align 16 dereferenceable(224) %0, i32 noundef %1, i32 noundef %2, i32 noundef %3, i32 noundef %4) unnamed_addr #4 align 2 {
  %6 = alloca i1, align 1
  %7 = alloca ptr, align 8
  %8 = alloca i32, align 4
  %9 = alloca i32, align 4
  %10 = alloca i32, align 4
  %11 = alloca i32, align 4
  store ptr %0, ptr %7, align 8
  store i32 %1, ptr %8, align 4
  store i32 %2, ptr %9, align 4
  store i32 %3, ptr %10, align 4
  store i32 %4, ptr %11, align 4
  %12 = load ptr, ptr %7, align 8
  %13 = load i32, ptr %8, align 4
  %14 = load i32, ptr %9, align 4
  %15 = load i32, ptr %10, align 4
  %16 = load i32, ptr %11, align 4
  %17 = call noundef zeroext i1 @_ZN7nanogui6Widget14keyboard_eventEiiii(ptr noundef nonnull align 8 dereferenceable(132) %12, i32 noundef %13, i32 noundef %14, i32 noundef %15, i32 noundef %16)
  br i1 %17, label %18, label %19

18:                                               ; preds = %5
  store i1 true, ptr %6, align 1
  br label %25

19:                                               ; preds = %5
  %20 = load i32, ptr %8, align 4
  %21 = icmp eq i32 %20, 256
  br i1 %21, label %22, label %24

22:                                               ; preds = %19
  %23 = getelementptr inbounds %"class.tev::HelpWindow", ptr %12, i32 0, i32 1
  call void @_ZNKSt3__18functionIFvvEEclEv(ptr noundef nonnull align 16 dereferenceable(48) %23)
  store i1 true, ptr %6, align 1
  br label %25

24:                                               ; preds = %19
  store i1 false, ptr %6, align 1
  br label %25

25:                                               ; preds = %24, %22, %18
  %26 = load i1, ptr %6, align 1
  ret i1 %26
}